; Function Attrs: mustprogress nounwind uwtable
define dso_local void @_ZN4node9inspector5Agent15SetParentHandleESt10unique_ptrINS0_21ParentInspectorHandleESt14default_deleteIS3_EE(ptr nocapture noundef nonnull align 8 dereferenceable(186) %this, ptr nocapture noundef %parent_handle) local_unnamed_addr #3 align 2 {
entry:
  %parent_handle_ = getelementptr inbounds i8, ptr %this, i64 32
  %0 = load ptr, ptr %parent_handle, align 8
  store ptr null, ptr %parent_handle, align 8
  %1 = load ptr, ptr %parent_handle_, align 8
  store ptr %0, ptr %parent_handle_, align 8
  %tobool.not.i.i.i.i = icmp eq ptr %1, null
  br i1 %tobool.not.i.i.i.i, label %_ZNSt10unique_ptrIN4node9inspector21ParentInspectorHandleESt14default_deleteIS2_EEaSEOS5_.exit, label %_ZNKSt14default_deleteIN4node9inspector21ParentInspectorHandleEEclEPS2_.exit.i.i.i.i

_ZNKSt14default_deleteIN4node9inspector21ParentInspectorHandleEEclEPS2_.exit.i.i.i.i: ; preds = %entry
  tail call void @_ZN4node9inspector21ParentInspectorHandleD1Ev(ptr noundef nonnull align 8 dereferenceable(96) %1) #23
  tail call void @_ZdlPv(ptr noundef nonnull %1) #24
  br label %_ZNSt10unique_ptrIN4node9inspector21ParentInspectorHandleESt14default_deleteIS2_EEaSEOS5_.exit

_ZNSt10unique_ptrIN4node9inspector21ParentInspectorHandleESt14default_deleteIS2_EEaSEOS5_.exit: ; preds = %entry, %_ZNKSt14default_deleteIN4node9inspector21ParentInspectorHandleEEclEPS2_.exit.i.i.i.i
  ret void
}